; Function Attrs: mustprogress uwtable
define dso_local void @_ZN3net18ReliableQuicStream9OnFinReadEv(ptr noundef nonnull align 8 dereferenceable(377) %this) local_unnamed_addr #2 align 2 {
entry:
  %fin_received_ = getelementptr inbounds i8, ptr %this, i64 260
  store i8 1, ptr %fin_received_, align 4
  %read_side_closed_.i = getelementptr inbounds i8, ptr %this, i64 256
  %0 = load i8, ptr %read_side_closed_.i, align 8
  %1 = and i8 %0, 1
  %tobool.not.i = icmp eq i8 %1, 0
  br i1 %tobool.not.i, label %if.end.i, label %_ZN3net18ReliableQuicStream13CloseReadSideEv.exit

if.end.i:                                         ; preds = %entry
  store i8 1, ptr %read_side_closed_.i, align 8
  %sequencer_.i = getelementptr inbounds i8, ptr %this, i64 40
  tail call void @_ZN3net19QuicStreamSequencer13ReleaseBufferEv(ptr noundef nonnull align 8 dereferenceable(169) %sequencer_.i)
  %write_side_closed_.i = getelementptr inbounds i8, ptr %this, i64 257
  %2 = load i8, ptr %write_side_closed_.i, align 1
  %3 = and i8 %2, 1
  %tobool3.not.i = icmp eq i8 %3, 0
  br i1 %tobool3.not.i, label %_ZN3net18ReliableQuicStream13CloseReadSideEv.exit, label %if.then4.i

if.then4.i:                                       ; preds = %if.end.i
  %session_.i = getelementptr inbounds i8, ptr %this, i64 224
  %4 = load ptr, ptr %session_.i, align 8
  %id_.i.i = getelementptr inbounds i8, ptr %this, i64 216
  %5 = load i32, ptr %id_.i.i, align 8
  %vtable.i = load ptr, ptr %4, align 8
  %vfn.i = getelementptr inbounds i8, ptr %vtable.i, i64 176
  %6 = load ptr, ptr %vfn.i, align 8
  tail call void %6(ptr noundef nonnull align 8 dereferenceable(2044) %4, i32 noundef %5)
  br label %_ZN3net18ReliableQuicStream13CloseReadSideEv.exit

_ZN3net18ReliableQuicStream13CloseReadSideEv.exit: ; preds = %entry, %if.end.i, %if.then4.i
  ret void
}